target datalayout = "e-m:e-p270:32:32-p271:32:32-p272:64:64-i64:64-i128:128-f80:128-n8:16:32:64-S128"
target triple = "x86_64-pc-linux-gnu"

%"class.std::__cxx11::basic_string" = type { %"struct.std::__cxx11::basic_string<char>::_Alloc_hider", i64, %union.anon }
%"struct.std::__cxx11::basic_string<char>::_Alloc_hider" = type { ptr }
%union.anon = type { i64, [8 x i8] }
%"struct.faiss::ParameterSpace" = type { ptr, %"class.std::vector.14", i32, i32, i64, i8, double }
%"class.std::vector.14" = type { %"struct.std::_Vector_base.15" }
%"struct.std::_Vector_base.15" = type { %"struct.std::_Vector_base<faiss::ParameterRange, std::allocator<faiss::ParameterRange>>::_Vector_impl" }
%"struct.std::_Vector_base<faiss::ParameterRange, std::allocator<faiss::ParameterRange>>::_Vector_impl" = type { %"struct.std::_Vector_base<faiss::ParameterRange, std::allocator<faiss::ParameterRange>>::_Vector_impl_data" }
%"struct.std::_Vector_base<faiss::ParameterRange, std::allocator<faiss::ParameterRange>>::_Vector_impl_data" = type { ptr, ptr, ptr }
%"struct.faiss::ParameterRange" = type { %"class.std::__cxx11::basic_string", %"class.std::vector.19" }
%"class.std::vector.19" = type { %"struct.std::_Vector_base.20" }
%"struct.std::_Vector_base.20" = type { %"struct.std::_Vector_base<double, std::allocator<double>>::_Vector_impl" }
%"struct.std::_Vector_base<double, std::allocator<double>>::_Vector_impl" = type { %"struct.std::_Vector_base<double, std::allocator<double>>::_Vector_impl_data" }
%"struct.std::_Vector_base<double, std::allocator<double>>::_Vector_impl_data" = type { ptr, ptr, ptr }
%"struct.faiss::OperatingPoint" = type { double, double, %"class.std::__cxx11::basic_string", i64 }

; Function Attrs: mustprogress nounwind uwtable
define linkonce_odr noundef i64 @_ZNKSt6vectorIdSaIdEE4sizeEv(ptr noundef nonnull align 8 dereferenceable(24) %0) #1 comdat align 2 {
  %2 = alloca ptr, align 8
  store ptr %0, ptr %2, align 8
  %3 = load ptr, ptr %2, align 8
  %4 = getelementptr inbounds %"struct.std::_Vector_base.20", ptr %3, i32 0, i32 0
  %5 = getelementptr inbounds %"struct.std::_Vector_base<double, std::allocator<double>>::_Vector_impl_data", ptr %4, i32 0, i32 1
  %6 = load ptr, ptr %5, align 8
  %7 = getelementptr inbounds %"struct.std::_Vector_base.20", ptr %3, i32 0, i32 0
  %8 = getelementptr inbounds %"struct.std::_Vector_base<double, std::allocator<double>>::_Vector_impl_data", ptr %7, i32 0, i32 0
  %9 = load ptr, ptr %8, align 8
  %10 = ptrtoint ptr %6 to i64
  %11 = ptrtoint ptr %9 to i64
  %12 = sub i64 %10, %11
  %13 = sdiv exact i64 %12, 8
  ret i64 %13
}

; Function Attrs: mustprogress nounwind uwtable
define linkonce_odr noundef nonnull align 8 dereferenceable(56) ptr @_ZNKSt6vectorIN5faiss14ParameterRangeESaIS1_EEixEm(ptr noundef nonnull align 8 dereferenceable(24) %0, i64 noundef %1) #1 comdat align 2 {
  %3 = alloca ptr, align 8
  %4 = alloca i64, align 8
  store ptr %0, ptr %3, align 8
  store i64 %1, ptr %4, align 8
  %5 = load ptr, ptr %3, align 8
  %6 = getelementptr inbounds %"struct.std::_Vector_base.15", ptr %5, i32 0, i32 0
  %7 = getelementptr inbounds %"struct.std::_Vector_base<faiss::ParameterRange, std::allocator<faiss::ParameterRange>>::_Vector_impl_data", ptr %6, i32 0, i32 0
  %8 = load ptr, ptr %7, align 8
  %9 = load i64, ptr %4, align 8
  %10 = getelementptr inbounds %"struct.faiss::ParameterRange", ptr %8, i64 %9
  ret ptr %10
}

; Function Attrs: mustprogress nounwind uwtable
define linkonce_odr noundef i64 @_ZNKSt6vectorIN5faiss14ParameterRangeESaIS1_EE4sizeEv(ptr noundef nonnull align 8 dereferenceable(24) %0) #1 comdat align 2 {
  %2 = alloca ptr, align 8
  store ptr %0, ptr %2, align 8
  %3 = load ptr, ptr %2, align 8
  %4 = getelementptr inbounds %"struct.std::_Vector_base.15", ptr %3, i32 0, i32 0
  %5 = getelementptr inbounds %"struct.std::_Vector_base<faiss::ParameterRange, std::allocator<faiss::ParameterRange>>::_Vector_impl_data", ptr %4, i32 0, i32 1
  %6 = load ptr, ptr %5, align 8
  %7 = getelementptr inbounds %"struct.std::_Vector_base.15", ptr %3, i32 0, i32 0
  %8 = getelementptr inbounds %"struct.std::_Vector_base<faiss::ParameterRange, std::allocator<faiss::ParameterRange>>::_Vector_impl_data", ptr %7, i32 0, i32 0
  %9 = load ptr, ptr %8, align 8
  %10 = ptrtoint ptr %6 to i64
  %11 = ptrtoint ptr %9 to i64
  %12 = sub i64 %10, %11
  %13 = sdiv exact i64 %12, 56
  ret i64 %13
}

; Function Attrs: mustprogress nounwind uwtable
define noundef zeroext i1 @_ZNK5faiss14ParameterSpace14combination_geEmm(ptr noundef nonnull align 8 dereferenceable(64) %0, i64 noundef %1, i64 noundef %2) #1 align 2 {
  %4 = alloca i1, align 1
  %5 = alloca ptr, align 8
  %6 = alloca i64, align 8
  %7 = alloca i64, align 8
  %8 = alloca i32, align 4
  %9 = alloca i32, align 4
  %10 = alloca i64, align 8
  %11 = alloca i64, align 8
  store ptr %0, ptr %5, align 8
  store i64 %1, ptr %6, align 8
  store i64 %2, ptr %7, align 8
  %12 = load ptr, ptr %5, align 8
  store i32 0, ptr %8, align 4
  br label %13

13:                                               ; preds = %48, %3
  %14 = load i32, ptr %8, align 4
  %15 = sext i32 %14 to i64
  %16 = getelementptr inbounds %"struct.faiss::ParameterSpace", ptr %12, i32 0, i32 1
  %17 = call noundef i64 @_ZNKSt6vectorIN5faiss14ParameterRangeESaIS1_EE4sizeEv(ptr noundef nonnull align 8 dereferenceable(24) %16) #5
  %18 = icmp ult i64 %15, %17
  br i1 %18, label %19, label %51

19:                                               ; preds = %13
  %20 = getelementptr inbounds %"struct.faiss::ParameterSpace", ptr %12, i32 0, i32 1
  %21 = load i32, ptr %8, align 4
  %22 = sext i32 %21 to i64
  %23 = call noundef nonnull align 8 dereferenceable(56) ptr @_ZNKSt6vectorIN5faiss14ParameterRangeESaIS1_EEixEm(ptr noundef nonnull align 8 dereferenceable(24) %20, i64 noundef %22) #5
  %24 = getelementptr inbounds %"struct.faiss::ParameterRange", ptr %23, i32 0, i32 1
  %25 = call noundef i64 @_ZNKSt6vectorIdSaIdEE4sizeEv(ptr noundef nonnull align 8 dereferenceable(24) %24) #5
  %26 = trunc i64 %25 to i32
  store i32 %26, ptr %9, align 4
  %27 = load i64, ptr %6, align 8
  %28 = load i32, ptr %9, align 4
  %29 = sext i32 %28 to i64
  %30 = urem i64 %27, %29
  store i64 %30, ptr %10, align 8
  %31 = load i64, ptr %7, align 8
  %32 = load i32, ptr %9, align 4
  %33 = sext i32 %32 to i64
  %34 = urem i64 %31, %33
  store i64 %34, ptr %11, align 8
  %35 = load i64, ptr %10, align 8
  %36 = load i64, ptr %11, align 8
  %37 = icmp uge i64 %35, %36
  br i1 %37, label %39, label %38

38:                                               ; preds = %19
  store i1 false, ptr %4, align 1
  br label %52

39:                                               ; preds = %19
  %40 = load i32, ptr %9, align 4
  %41 = sext i32 %40 to i64
  %42 = load i64, ptr %6, align 8
  %43 = udiv i64 %42, %41
  store i64 %43, ptr %6, align 8
  %44 = load i32, ptr %9, align 4
  %45 = sext i32 %44 to i64
  %46 = load i64, ptr %7, align 8
  %47 = udiv i64 %46, %45
  store i64 %47, ptr %7, align 8
  br label %48

48:                                               ; preds = %39
  %49 = load i32, ptr %8, align 4
  %50 = add nsw i32 %49, 1
  store i32 %50, ptr %8, align 4
  br label %13, !llvm.loop !31

51:                                               ; preds = %13
  store i1 true, ptr %4, align 1
  br label %52

52:                                               ; preds = %51, %38
  %53 = load i1, ptr %4, align 1
  ret i1 %53
}

; Function Attrs: mustprogress nounwind uwtable
define void @_ZNK5faiss14ParameterSpace13update_boundsEmRKNS_14OperatingPointEPdS4_(ptr noundef nonnull align 8 dereferenceable(64) %0, i64 noundef %1, ptr noundef nonnull align 8 dereferenceable(56) %2, ptr noundef %3, ptr noundef %4) #1 align 2 {
  %6 = alloca ptr, align 8
  %7 = alloca i64, align 8
  %8 = alloca ptr, align 8
  %9 = alloca ptr, align 8
  %10 = alloca ptr, align 8
  store ptr %0, ptr %6, align 8
  store i64 %1, ptr %7, align 8
  store ptr %2, ptr %8, align 8
  store ptr %3, ptr %9, align 8
  store ptr %4, ptr %10, align 8
  %11 = load ptr, ptr %6, align 8
  %12 = load i64, ptr %7, align 8
  %13 = load ptr, ptr %8, align 8
  %14 = getelementptr inbounds %"struct.faiss::OperatingPoint", ptr %13, i32 0, i32 3
  %15 = load i64, ptr %14, align 8
  %16 = call noundef zeroext i1 @_ZNK5faiss14ParameterSpace14combination_geEmm(ptr noundef nonnull align 8 dereferenceable(64) %11, i64 noundef %12, i64 noundef %15)
  br i1 %16, label %17, label %30

17:                                               ; preds = %5
  %18 = load ptr, ptr %8, align 8
  %19 = getelementptr inbounds %"struct.faiss::OperatingPoint", ptr %18, i32 0, i32 1
  %20 = load double, ptr %19, align 8
  %21 = load ptr, ptr %10, align 8
  %22 = load double, ptr %21, align 8
  %23 = fcmp ogt double %20, %22
  br i1 %23, label %24, label %29

24:                                               ; preds = %17
  %25 = load ptr, ptr %8, align 8
  %26 = getelementptr inbounds %"struct.faiss::OperatingPoint", ptr %25, i32 0, i32 1
  %27 = load double, ptr %26, align 8
  %28 = load ptr, ptr %10, align 8
  store double %27, ptr %28, align 8
  br label %29

29:                                               ; preds = %24, %17
  br label %30

30:                                               ; preds = %29, %5
  %31 = load ptr, ptr %8, align 8
  %32 = getelementptr inbounds %"struct.faiss::OperatingPoint", ptr %31, i32 0, i32 3
  %33 = load i64, ptr %32, align 8
  %34 = load i64, ptr %7, align 8
  %35 = call noundef zeroext i1 @_ZNK5faiss14ParameterSpace14combination_geEmm(ptr noundef nonnull align 8 dereferenceable(64) %11, i64 noundef %33, i64 noundef %34)
  br i1 %35, label %36, label %49

36:                                               ; preds = %30
  %37 = load ptr, ptr %8, align 8
  %38 = getelementptr inbounds %"struct.faiss::OperatingPoint", ptr %37, i32 0, i32 0
  %39 = load double, ptr %38, align 8
  %40 = load ptr, ptr %9, align 8
  %41 = load double, ptr %40, align 8
  %42 = fcmp olt double %39, %41
  br i1 %42, label %43, label %48

43:                                               ; preds = %36
  %44 = load ptr, ptr %8, align 8
  %45 = getelementptr inbounds %"struct.faiss::OperatingPoint", ptr %44, i32 0, i32 0
  %46 = load double, ptr %45, align 8
  %47 = load ptr, ptr %9, align 8
  store double %46, ptr %47, align 8
  br label %48

48:                                               ; preds = %43, %36
  br label %49

49:                                               ; preds = %48, %30
  ret void
}