; Function Attrs: mustprogress nofree norecurse nosync nounwind memory(read, argmem: readwrite, inaccessiblemem: none) uwtable
define void @_ZNK5faiss14ParameterSpace13update_boundsEmRKNS_14OperatingPointEPdS4_(ptr nocapture noundef nonnull readonly align 8 dereferenceable(64) %0, i64 noundef %1, ptr nocapture noundef nonnull readonly align 8 dereferenceable(56) %2, ptr nocapture noundef %3, ptr nocapture noundef %4) local_unnamed_addr #23 align 2 {
  %6 = getelementptr inbounds i8, ptr %2, i64 48
  %7 = getelementptr inbounds i8, ptr %0, i64 8
  %8 = getelementptr inbounds i8, ptr %0, i64 16
  %9 = load ptr, ptr %8, align 8
  %10 = load ptr, ptr %7, align 8
  %11 = ptrtoint ptr %9 to i64
  %12 = ptrtoint ptr %10 to i64
  %13 = sub i64 %11, %12
  %14 = sdiv exact i64 %13, 56
  %15 = icmp eq ptr %9, %10
  br i1 %15, label %_ZNK5faiss14ParameterSpace14combination_geEmm.exit.thread, label %.lr.ph.preheader.i

.lr.ph.preheader.i:                               ; preds = %5
  %16 = load i64, ptr %6, align 8
  %umax.i = tail call i64 @llvm.umax.i64(i64 %14, i64 1)
  %17 = getelementptr inbounds i8, ptr %10, i64 32
  %18 = getelementptr inbounds i8, ptr %10, i64 40
  %19 = load ptr, ptr %18, align 8
  %20 = load ptr, ptr %17, align 8
  %21 = ptrtoint ptr %19 to i64
  %22 = ptrtoint ptr %20 to i64
  %23 = sub i64 %21, %22
  %sext.i27 = shl i64 %23, 29
  %24 = ashr exact i64 %sext.i27, 32
  %25 = urem i64 %1, %24
  %26 = urem i64 %16, %24
  %.not.i28 = icmp ult i64 %25, %26
  br i1 %.not.i28, label %.critedge, label %.lr.ph

.lr.ph.i:                                         ; preds = %.lr.ph
  %27 = udiv i64 %.01519.i31, %39
  %28 = udiv i64 %.01420.i30, %39
  %29 = getelementptr inbounds %"struct.faiss::ParameterRange", ptr %10, i64 %indvars.iv.next.i, i32 1
  %30 = getelementptr inbounds i8, ptr %29, i64 8
  %31 = load ptr, ptr %30, align 8
  %32 = load ptr, ptr %29, align 8
  %33 = ptrtoint ptr %31 to i64
  %34 = ptrtoint ptr %32 to i64
  %35 = sub i64 %33, %34
  %sext.i = shl i64 %35, 29
  %36 = ashr exact i64 %sext.i, 32
  %37 = urem i64 %28, %36
  %38 = urem i64 %27, %36
  %.not.i = icmp ult i64 %37, %38
  br i1 %.not.i, label %_ZNK5faiss14ParameterSpace14combination_geEmm.exit, label %.lr.ph, !llvm.loop !42

.lr.ph:                                           ; preds = %.lr.ph.preheader.i, %.lr.ph.i
  %39 = phi i64 [ %36, %.lr.ph.i ], [ %24, %.lr.ph.preheader.i ]
  %.01519.i31 = phi i64 [ %27, %.lr.ph.i ], [ %16, %.lr.ph.preheader.i ]
  %.01420.i30 = phi i64 [ %28, %.lr.ph.i ], [ %1, %.lr.ph.preheader.i ]
  %indvars.iv.i29 = phi i64 [ %indvars.iv.next.i, %.lr.ph.i ], [ 0, %.lr.ph.preheader.i ]
  %indvars.iv.next.i = add nuw i64 %indvars.iv.i29, 1
  %exitcond.i = icmp eq i64 %indvars.iv.next.i, %umax.i
  br i1 %exitcond.i, label %_ZNK5faiss14ParameterSpace14combination_geEmm.exit, label %.lr.ph.i, !llvm.loop !42

_ZNK5faiss14ParameterSpace14combination_geEmm.exit: ; preds = %.lr.ph, %.lr.ph.i
  %.not.le = icmp ugt i64 %14, %indvars.iv.next.i
  br i1 %.not.le, label %.critedge, label %_ZNK5faiss14ParameterSpace14combination_geEmm.exit.thread

_ZNK5faiss14ParameterSpace14combination_geEmm.exit.thread: ; preds = %5, %_ZNK5faiss14ParameterSpace14combination_geEmm.exit
  %40 = getelementptr inbounds i8, ptr %2, i64 8
  %41 = load double, ptr %40, align 8
  %42 = load double, ptr %4, align 8
  %43 = fcmp ogt double %41, %42
  br i1 %43, label %44, label %.critedge

44:                                               ; preds = %_ZNK5faiss14ParameterSpace14combination_geEmm.exit.thread
  store double %41, ptr %4, align 8
  %.pre = load ptr, ptr %8, align 8
  %.pre43 = load ptr, ptr %7, align 8
  %.pre44 = ptrtoint ptr %.pre to i64
  %.pre45 = ptrtoint ptr %.pre43 to i64
  %.pre47 = sub i64 %.pre44, %.pre45
  %.pre49 = sdiv exact i64 %.pre47, 56
  br label %.critedge

.critedge:                                        ; preds = %.lr.ph.preheader.i, %_ZNK5faiss14ParameterSpace14combination_geEmm.exit.thread, %44, %_ZNK5faiss14ParameterSpace14combination_geEmm.exit
  %.pre-phi50 = phi i64 [ %14, %.lr.ph.preheader.i ], [ %14, %_ZNK5faiss14ParameterSpace14combination_geEmm.exit.thread ], [ %.pre49, %44 ], [ %14, %_ZNK5faiss14ParameterSpace14combination_geEmm.exit ]
  %45 = phi ptr [ %10, %.lr.ph.preheader.i ], [ %10, %_ZNK5faiss14ParameterSpace14combination_geEmm.exit.thread ], [ %.pre43, %44 ], [ %10, %_ZNK5faiss14ParameterSpace14combination_geEmm.exit ]
  %46 = phi ptr [ %9, %.lr.ph.preheader.i ], [ %9, %_ZNK5faiss14ParameterSpace14combination_geEmm.exit.thread ], [ %.pre, %44 ], [ %9, %_ZNK5faiss14ParameterSpace14combination_geEmm.exit ]
  %47 = icmp eq ptr %46, %45
  br i1 %47, label %_ZNK5faiss14ParameterSpace14combination_geEmm.exit24.thread, label %.lr.ph.preheader.i13

.lr.ph.preheader.i13:                             ; preds = %.critedge
  %48 = load i64, ptr %6, align 8
  %umax.i14 = tail call i64 @llvm.umax.i64(i64 %.pre-phi50, i64 1)
  %49 = getelementptr inbounds i8, ptr %45, i64 32
  %50 = getelementptr inbounds i8, ptr %45, i64 40
  %51 = load ptr, ptr %50, align 8
  %52 = load ptr, ptr %49, align 8
  %53 = ptrtoint ptr %51 to i64
  %54 = ptrtoint ptr %52 to i64
  %55 = sub i64 %53, %54
  %sext.i1933 = shl i64 %55, 29
  %56 = ashr exact i64 %sext.i1933, 32
  %57 = urem i64 %48, %56
  %58 = urem i64 %1, %56
  %.not.i2034 = icmp ult i64 %57, %58
  br i1 %.not.i2034, label %.critedge41, label %.lr.ph38

.lr.ph.i15:                                       ; preds = %.lr.ph38
  %59 = udiv i64 %.01519.i1837, %71
  %60 = udiv i64 %.01420.i1736, %71
  %61 = getelementptr inbounds %"struct.faiss::ParameterRange", ptr %45, i64 %indvars.iv.next.i21, i32 1
  %62 = getelementptr inbounds i8, ptr %61, i64 8
  %63 = load ptr, ptr %62, align 8
  %64 = load ptr, ptr %61, align 8
  %65 = ptrtoint ptr %63 to i64
  %66 = ptrtoint ptr %64 to i64
  %67 = sub i64 %65, %66
  %sext.i19 = shl i64 %67, 29
  %68 = ashr exact i64 %sext.i19, 32
  %69 = urem i64 %60, %68
  %70 = urem i64 %59, %68
  %.not.i20 = icmp ult i64 %69, %70
  br i1 %.not.i20, label %_ZNK5faiss14ParameterSpace14combination_geEmm.exit24, label %.lr.ph38, !llvm.loop !42

.lr.ph38:                                         ; preds = %.lr.ph.preheader.i13, %.lr.ph.i15
  %71 = phi i64 [ %68, %.lr.ph.i15 ], [ %56, %.lr.ph.preheader.i13 ]
  %.01519.i1837 = phi i64 [ %59, %.lr.ph.i15 ], [ %1, %.lr.ph.preheader.i13 ]
  %.01420.i1736 = phi i64 [ %60, %.lr.ph.i15 ], [ %48, %.lr.ph.preheader.i13 ]
  %indvars.iv.i1635 = phi i64 [ %indvars.iv.next.i21, %.lr.ph.i15 ], [ 0, %.lr.ph.preheader.i13 ]
  %indvars.iv.next.i21 = add nuw i64 %indvars.iv.i1635, 1
  %exitcond.i22 = icmp eq i64 %indvars.iv.next.i21, %umax.i14
  br i1 %exitcond.i22, label %_ZNK5faiss14ParameterSpace14combination_geEmm.exit24, label %.lr.ph.i15, !llvm.loop !42

_ZNK5faiss14ParameterSpace14combination_geEmm.exit24: ; preds = %.lr.ph38, %.lr.ph.i15
  %.not42.le = icmp ugt i64 %.pre-phi50, %indvars.iv.next.i21
  br i1 %.not42.le, label %.critedge41, label %_ZNK5faiss14ParameterSpace14combination_geEmm.exit24.thread

_ZNK5faiss14ParameterSpace14combination_geEmm.exit24.thread: ; preds = %.critedge, %_ZNK5faiss14ParameterSpace14combination_geEmm.exit24
  %72 = load double, ptr %2, align 8
  %73 = load double, ptr %3, align 8
  %74 = fcmp olt double %72, %73
  br i1 %74, label %75, label %.critedge41

75:                                               ; preds = %_ZNK5faiss14ParameterSpace14combination_geEmm.exit24.thread
  store double %72, ptr %3, align 8
  br label %.critedge41

.critedge41:                                      ; preds = %.lr.ph.preheader.i13, %_ZNK5faiss14ParameterSpace14combination_geEmm.exit24.thread, %75, %_ZNK5faiss14ParameterSpace14combination_geEmm.exit24
  ret void
}